; Function Attrs: mustprogress nounwind uwtable
define internal noundef zeroext i1 @_ZNK12_GLOBAL__N_126ParsedAttrInfoPtGuardedVar20diagAppertainsToDeclERN5clang4SemaERKNS1_10ParsedAttrEPKNS1_4DeclE(ptr nocapture nonnull readnone align 8 %0, ptr noundef nonnull align 8 dereferenceable(17560) %1, ptr noundef nonnull align 8 dereferenceable(72) %2, ptr noundef %3) unnamed_addr #0 align 2 {
  %5 = alloca %"class.clang::SemaBase::SemaDiagnosticBuilder", align 8
  %6 = alloca i8, align 1
  %7 = getelementptr inbounds nuw i8, ptr %3, i64 28
  %8 = load i32, ptr %7, align 4
  %9 = and i32 %8, 127
  %10 = add nsw i32 %9, -46
  %11 = icmp ult i32 %10, 3
  br i1 %11, label %28, label %12

12:                                               ; preds = %4
  %13 = add nsw i32 %9, -44
  %14 = icmp ult i32 %13, -7
  br i1 %14, label %_ZN12_GLOBAL__N_111isSharedVarEPKN5clang4DeclE.exit.thread, label %15

15:                                               ; preds = %12
  %16 = tail call noundef zeroext i1 @_ZNK5clang7VarDecl15hasLocalStorageEv(ptr noundef nonnull align 8 dereferenceable(100) %3)
  br i1 %16, label %_ZN12_GLOBAL__N_111isSharedVarEPKN5clang4DeclE.exit.thread, label %_ZN12_GLOBAL__N_111isSharedVarEPKN5clang4DeclE.exit

_ZN12_GLOBAL__N_111isSharedVarEPKN5clang4DeclE.exit: ; preds = %15
  %17 = tail call noundef i32 @_ZNK5clang7VarDecl10getTLSKindEv(ptr noundef nonnull align 8 dereferenceable(100) %3) #18
  %.not6.i = icmp eq i32 %17, 0
  br i1 %.not6.i, label %28, label %_ZN12_GLOBAL__N_111isSharedVarEPKN5clang4DeclE.exit.thread

_ZN12_GLOBAL__N_111isSharedVarEPKN5clang4DeclE.exit.thread: ; preds = %12, %15, %_ZN12_GLOBAL__N_111isSharedVarEPKN5clang4DeclE.exit
  %18 = getelementptr inbounds i8, ptr %1, i64 8
  %19 = getelementptr inbounds nuw i8, ptr %2, i64 16
  %.sroa.0.0.copyload.i.i = load i32, ptr %19, align 8
  call void @_ZN5clang8SemaBase4DiagENS_14SourceLocationEjb(ptr dead_on_unwind nonnull writable sret(%"class.clang::SemaBase::SemaDiagnosticBuilder") align 8 %5, ptr noundef nonnull align 8 dereferenceable(8) %18, i32 %.sroa.0.0.copyload.i.i, i32 noundef 6180, i1 noundef zeroext false) #18
  %20 = call noundef nonnull align 8 dereferenceable(96) ptr @_ZN5clanglsINS_10ParsedAttrEEERKNS_8SemaBase21SemaDiagnosticBuilderES5_RKT_(ptr noundef nonnull align 8 dereferenceable(96) %5, ptr noundef nonnull align 8 dereferenceable(72) %2)
  %21 = getelementptr inbounds nuw i8, ptr %2, i64 28
  %22 = load i32, ptr %21, align 4
  %23 = lshr i32 %22, 25
  %24 = trunc nuw nsw i32 %23 to i8
  %25 = and i8 %24, 1
  store i8 %25, ptr %6, align 1
  %26 = call noundef nonnull align 8 dereferenceable(96) ptr @_ZNK5clang8SemaBase21SemaDiagnosticBuilderlsIbvEERKS1_OT_(ptr noundef nonnull align 8 dereferenceable(96) %20, ptr noundef nonnull align 1 dereferenceable(1) %6)
  %27 = call noundef nonnull align 8 dereferenceable(96) ptr @_ZN5clanglsIA45_cEERKNS_8SemaBase21SemaDiagnosticBuilderES5_RKT_(ptr noundef nonnull align 8 dereferenceable(96) %26, ptr noundef nonnull align 1 dereferenceable(45) @.str.1340)
  call void @_ZN5clang8SemaBase21SemaDiagnosticBuilderD1Ev(ptr noundef nonnull align 8 dereferenceable(96) %5) #18
  br label %28

28:                                               ; preds = %4, %_ZN12_GLOBAL__N_111isSharedVarEPKN5clang4DeclE.exit, %_ZN12_GLOBAL__N_111isSharedVarEPKN5clang4DeclE.exit.thread
  %.0 = phi i1 [ false, %_ZN12_GLOBAL__N_111isSharedVarEPKN5clang4DeclE.exit.thread ], [ true, %_ZN12_GLOBAL__N_111isSharedVarEPKN5clang4DeclE.exit ], [ true, %4 ]
  ret i1 %.0
}